target datalayout = "e-m:e-p270:32:32-p271:32:32-p272:64:64-i64:64-i128:128-f80:128-n8:16:32:64-S128"
target triple = "x86_64-pc-linux-gnu"

%struct._stat_tap_table_item_type = type { i32, %union.anon, %union.anon.0 }
%union.anon = type { ptr }
%union.anon.0 = type { ptr }
%struct._stat_tap_table_ui = type { i32, ptr, ptr, ptr, ptr, ptr, ptr, ptr, ptr, i64, ptr, i64, ptr, ptr, i32 }
%struct._gsm_a_tap_rec_t = type { i8, i8, i32 }
%struct._stat_data_t = type { ptr, ptr }
%struct._GArray = type { ptr, i32 }

; Function Attrs: null_pointer_is_valid sspstrong uwtable
define internal i32 @gsm_a_stat_packet(ptr noundef %0, ptr noundef %1, i8 noundef zeroext %2, i32 noundef %3) #1 {
  %5 = alloca i32, align 4
  %6 = alloca ptr, align 8
  %7 = alloca ptr, align 8
  %8 = alloca i8, align 1
  %9 = alloca i32, align 4
  %10 = alloca ptr, align 8
  %11 = alloca ptr, align 8
  %12 = alloca ptr, align 8
  %13 = alloca ptr, align 8
  %14 = alloca i32, align 4
  store ptr %0, ptr %6, align 8
  store ptr %1, ptr %7, align 8
  store i8 %2, ptr %8, align 1
  store i32 %3, ptr %9, align 4
  call void @llvm.lifetime.start.p0(i64 8, ptr %10) #9
  %15 = load ptr, ptr %6, align 8
  store ptr %15, ptr %10, align 8
  call void @llvm.lifetime.start.p0(i64 8, ptr %11) #9
  %16 = load ptr, ptr %7, align 8
  store ptr %16, ptr %11, align 8
  call void @llvm.lifetime.start.p0(i64 8, ptr %12) #9
  call void @llvm.lifetime.start.p0(i64 8, ptr %13) #9
  %17 = load ptr, ptr %11, align 8
  %18 = getelementptr inbounds nuw %struct._gsm_a_tap_rec_t, ptr %17, i32 0, i32 0
  %19 = load i8, ptr %18, align 4
  %20 = zext i8 %19 to i32
  %21 = load i8, ptr %8, align 1
  %22 = zext i8 %21 to i32
  %23 = icmp ne i32 %20, %22
  br i1 %23, label %24, label %25

24:                                               ; preds = %4
  store i32 0, ptr %5, align 4
  store i32 1, ptr %14, align 4
  br label %72

25:                                               ; preds = %4
  %26 = load i8, ptr %8, align 1
  %27 = zext i8 %26 to i32
  %28 = icmp eq i32 %27, 1
  br i1 %28, label %29, label %36

29:                                               ; preds = %25
  %30 = load ptr, ptr %11, align 8
  %31 = getelementptr inbounds nuw %struct._gsm_a_tap_rec_t, ptr %30, i32 0, i32 2
  %32 = load i32, ptr %31, align 4
  %33 = load i32, ptr %9, align 4
  %34 = icmp ne i32 %32, %33
  br i1 %34, label %35, label %36

35:                                               ; preds = %29
  store i32 0, ptr %5, align 4
  store i32 1, ptr %14, align 4
  br label %72

36:                                               ; preds = %29, %25
  %37 = load i8, ptr %8, align 1
  %38 = zext i8 %37 to i32
  %39 = icmp eq i32 %38, 7
  br i1 %39, label %40, label %46

40:                                               ; preds = %36
  %41 = load ptr, ptr %11, align 8
  %42 = getelementptr inbounds nuw %struct._gsm_a_tap_rec_t, ptr %41, i32 0, i32 2
  %43 = load i32, ptr %42, align 4
  %44 = icmp ne i32 %43, 0
  br i1 %44, label %45, label %46

45:                                               ; preds = %40
  store i32 0, ptr %5, align 4
  store i32 1, ptr %14, align 4
  br label %72

46:                                               ; preds = %40, %36
  %47 = load ptr, ptr %10, align 8
  %48 = getelementptr inbounds nuw %struct._stat_data_t, ptr %47, i32 0, i32 0
  %49 = load ptr, ptr %48, align 8
  %50 = getelementptr inbounds nuw %struct._stat_tap_table_ui, ptr %49, i32 0, i32 13
  %51 = load ptr, ptr %50, align 8
  %52 = getelementptr inbounds nuw %struct._GArray, ptr %51, i32 0, i32 0
  %53 = load ptr, ptr %52, align 8
  %54 = getelementptr ptr, ptr %53, i64 0
  %55 = load ptr, ptr %54, align 8
  store ptr %55, ptr %12, align 8
  %56 = load ptr, ptr %12, align 8
  %57 = load ptr, ptr %11, align 8
  %58 = getelementptr inbounds nuw %struct._gsm_a_tap_rec_t, ptr %57, i32 0, i32 1
  %59 = load i8, ptr %58, align 1
  %60 = zext i8 %59 to i32
  %61 = call ptr @stat_tap_get_field_data(ptr noundef %56, i32 noundef %60, i32 noundef 2)
  store ptr %61, ptr %13, align 8
  %62 = load ptr, ptr %13, align 8
  %63 = getelementptr inbounds nuw %struct._stat_tap_table_item_type, ptr %62, i32 0, i32 1
  %64 = load i32, ptr %63, align 8
  %65 = add i32 %64, 1
  store i32 %65, ptr %63, align 8
  %66 = load ptr, ptr %12, align 8
  %67 = load ptr, ptr %11, align 8
  %68 = getelementptr inbounds nuw %struct._gsm_a_tap_rec_t, ptr %67, i32 0, i32 1
  %69 = load i8, ptr %68, align 1
  %70 = zext i8 %69 to i32
  %71 = load ptr, ptr %13, align 8
  call void @stat_tap_set_field_data(ptr noundef %66, i32 noundef %70, i32 noundef 2, ptr noundef %71)
  store i32 1, ptr %5, align 4
  store i32 1, ptr %14, align 4
  br label %72

72:                                               ; preds = %46, %45, %35, %24
  call void @llvm.lifetime.end.p0(i64 8, ptr %13) #9
  call void @llvm.lifetime.end.p0(i64 8, ptr %12) #9
  call void @llvm.lifetime.end.p0(i64 8, ptr %11) #9
  call void @llvm.lifetime.end.p0(i64 8, ptr %10) #9
  %73 = load i32, ptr %5, align 4
  ret i32 %73
}

; Function Attrs: null_pointer_is_valid sspstrong uwtable
define internal i32 @gsm_a_dtap_gmm_stat_packet(ptr noundef %0, ptr noundef %1, ptr noundef %2, ptr noundef %3, i32 noundef %4) #1 {
  %6 = alloca ptr, align 8
  %7 = alloca ptr, align 8
  %8 = alloca ptr, align 8
  %9 = alloca ptr, align 8
  %10 = alloca i32, align 4
  store ptr %0, ptr %6, align 8
  store ptr %1, ptr %7, align 8
  store ptr %2, ptr %8, align 8
  store ptr %3, ptr %9, align 8
  store i32 %4, ptr %10, align 4
  %11 = load ptr, ptr %6, align 8
  %12 = load ptr, ptr %9, align 8
  %13 = call i32 @gsm_a_stat_packet(ptr noundef %11, ptr noundef %12, i8 noundef zeroext 1, i32 noundef 8)
  ret i32 %13
}